target datalayout = "e-m:e-p270:32:32-p271:32:32-p272:64:64-i64:64-i128:128-f80:128-n8:16:32:64-S128"
target triple = "x86_64-pc-linux-gnu"

%struct.Vec_Int_t_ = type { i32, i32, ptr }
%struct.Gia_Man_t_ = type { ptr, ptr, i32, i32, i32, i32, ptr, ptr, i32, i32, i32, ptr, ptr, %struct.Vec_Int_t_, %struct.Vec_Int_t_, i32, i32, i32, %struct.Vec_Int_t_, ptr, ptr, ptr, i32, i32, i32, i32, ptr, ptr, ptr, ptr, ptr, i32, i32, ptr, i32, ptr, ptr, ptr, ptr, ptr, ptr, ptr, ptr, ptr, ptr, ptr, ptr, ptr, ptr, ptr, ptr, ptr, ptr, %struct.Vec_Int_t_, %struct.Vec_Int_t_, ptr, ptr, ptr, ptr, ptr, ptr, ptr, ptr, ptr, ptr, ptr, ptr, ptr, ptr, ptr, ptr, ptr, ptr, ptr, ptr, ptr, i32, float, float, ptr, ptr, i32, ptr, ptr, ptr, ptr, ptr, ptr, ptr, ptr, ptr, ptr, ptr, ptr, ptr, ptr, ptr, i64, i64, ptr, ptr, i32, i32, i32, i32, i32, i32, i32, i32, i32, i32, i32, i32, ptr, ptr, ptr, ptr, ptr, ptr, ptr, ptr, i32, i32, i32, ptr, i32, i32, ptr, ptr, ptr, ptr, ptr, ptr, i32, i32, ptr, %struct.Vec_Int_t_, %struct.Vec_Int_t_, %struct.Vec_Int_t_, ptr, ptr, ptr, i32, i32, i32, i32, ptr, ptr, ptr, ptr, ptr }
%struct.Gia_Obj_t_ = type <{ i64, i32 }>
%struct.Jf_Man_t_ = type { ptr, ptr, ptr, ptr, ptr, %struct.Vec_Int_t_, %struct.Vec_Int_t_, %struct.Vec_Int_t_, %struct.Vec_Flt_t_, %struct.Vec_Flt_t_, %struct.Vec_Set_t_, ptr, ptr, i64, [4 x i64], i32 }
%struct.Vec_Flt_t_ = type { i32, i32, ptr }
%struct.Vec_Set_t_ = type { i32, i32, i32, i32, i32, i32, ptr }

; Function Attrs: inlinehint nounwind uwtable
define internal float @Vec_FltEntry(ptr noundef %0, i32 noundef %1) #1 {
  %3 = alloca ptr, align 8
  %4 = alloca i32, align 4
  store ptr %0, ptr %3, align 8, !tbaa !108
  store i32 %1, ptr %4, align 4, !tbaa !7
  %5 = load ptr, ptr %3, align 8, !tbaa !108
  %6 = getelementptr inbounds nuw %struct.Vec_Flt_t_, ptr %5, i32 0, i32 2
  %7 = load ptr, ptr %6, align 8, !tbaa !109
  %8 = load i32, ptr %4, align 4, !tbaa !7
  %9 = sext i32 %8 to i64
  %10 = getelementptr inbounds float, ptr %7, i64 %9
  %11 = load float, ptr %10, align 4, !tbaa !84
  ret float %11
}

; Function Attrs: inlinehint nounwind uwtable
define internal i32 @Vec_IntEntry(ptr noundef %0, i32 noundef %1) #1 {
  %3 = alloca ptr, align 8
  %4 = alloca i32, align 4
  store ptr %0, ptr %3, align 8, !tbaa !9
  store i32 %1, ptr %4, align 4, !tbaa !7
  %5 = load ptr, ptr %3, align 8, !tbaa !9
  %6 = getelementptr inbounds nuw %struct.Vec_Int_t_, ptr %5, i32 0, i32 2
  %7 = load ptr, ptr %6, align 8, !tbaa !20
  %8 = load i32, ptr %4, align 4, !tbaa !7
  %9 = sext i32 %8 to i64
  %10 = getelementptr inbounds i32, ptr %7, i64 %9
  %11 = load i32, ptr %10, align 4, !tbaa !7
  ret i32 %11
}

; Function Attrs: inlinehint nounwind uwtable
define internal void @Vec_FltWriteEntry(ptr noundef %0, i32 noundef %1, float noundef %2) #1 {
  %4 = alloca ptr, align 8
  %5 = alloca i32, align 4
  %6 = alloca float, align 4
  store ptr %0, ptr %4, align 8, !tbaa !108
  store i32 %1, ptr %5, align 4, !tbaa !7
  store float %2, ptr %6, align 4, !tbaa !84
  %7 = load float, ptr %6, align 4, !tbaa !84
  %8 = load ptr, ptr %4, align 8, !tbaa !108
  %9 = getelementptr inbounds nuw %struct.Vec_Flt_t_, ptr %8, i32 0, i32 2
  %10 = load ptr, ptr %9, align 8, !tbaa !109
  %11 = load i32, ptr %5, align 4, !tbaa !7
  %12 = sext i32 %11 to i64
  %13 = getelementptr inbounds float, ptr %10, i64 %12
  store float %7, ptr %13, align 4, !tbaa !84
  ret void
}

; Function Attrs: inlinehint nounwind uwtable
define internal float @Jf_ObjFlow(ptr noundef %0, i32 noundef %1) #1 {
  %3 = alloca ptr, align 8
  %4 = alloca i32, align 4
  store ptr %0, ptr %3, align 8, !tbaa !64
  store i32 %1, ptr %4, align 4, !tbaa !7
  %5 = load ptr, ptr %3, align 8, !tbaa !64
  %6 = getelementptr inbounds nuw %struct.Jf_Man_t_, ptr %5, i32 0, i32 8
  %7 = load i32, ptr %4, align 4, !tbaa !7
  %8 = call float @Vec_FltEntry(ptr noundef %6, i32 noundef %7)
  ret float %8
}

; Function Attrs: inlinehint nounwind uwtable
define internal void @Vec_IntWriteEntry(ptr noundef %0, i32 noundef %1, i32 noundef %2) #1 {
  %4 = alloca ptr, align 8
  %5 = alloca i32, align 4
  %6 = alloca i32, align 4
  store ptr %0, ptr %4, align 8, !tbaa !9
  store i32 %1, ptr %5, align 4, !tbaa !7
  store i32 %2, ptr %6, align 4, !tbaa !7
  %7 = load i32, ptr %6, align 4, !tbaa !7
  %8 = load ptr, ptr %4, align 8, !tbaa !9
  %9 = getelementptr inbounds nuw %struct.Vec_Int_t_, ptr %8, i32 0, i32 2
  %10 = load ptr, ptr %9, align 8, !tbaa !20
  %11 = load i32, ptr %5, align 4, !tbaa !7
  %12 = sext i32 %11 to i64
  %13 = getelementptr inbounds i32, ptr %10, i64 %12
  store i32 %7, ptr %13, align 4, !tbaa !7
  ret void
}

; Function Attrs: inlinehint nounwind uwtable
define internal i32 @Jf_ObjArr(ptr noundef %0, i32 noundef %1) #1 {
  %3 = alloca ptr, align 8
  %4 = alloca i32, align 4
  store ptr %0, ptr %3, align 8, !tbaa !64
  store i32 %1, ptr %4, align 4, !tbaa !7
  %5 = load ptr, ptr %3, align 8, !tbaa !64
  %6 = getelementptr inbounds nuw %struct.Jf_Man_t_, ptr %5, i32 0, i32 6
  %7 = load i32, ptr %4, align 4, !tbaa !7
  %8 = call i32 @Vec_IntEntry(ptr noundef %6, i32 noundef %7)
  ret i32 %8
}

; Function Attrs: inlinehint nounwind uwtable
define internal i32 @Gia_ObjFaninId0(ptr noundef %0, i32 noundef %1) #1 {
  %3 = alloca ptr, align 8
  %4 = alloca i32, align 4
  store ptr %0, ptr %3, align 8, !tbaa !23
  store i32 %1, ptr %4, align 4, !tbaa !7
  %5 = load i32, ptr %4, align 4, !tbaa !7
  %6 = load ptr, ptr %3, align 8, !tbaa !23
  %7 = load i64, ptr %6, align 4
  %8 = and i64 %7, 536870911
  %9 = trunc i64 %8 to i32
  %10 = sub nsw i32 %5, %9
  ret i32 %10
}

; Function Attrs: inlinehint nounwind uwtable
define internal i32 @Gia_ObjId(ptr noundef %0, ptr noundef %1) #1 {
  %3 = alloca ptr, align 8
  %4 = alloca ptr, align 8
  store ptr %0, ptr %3, align 8, !tbaa !21
  store ptr %1, ptr %4, align 8, !tbaa !23
  %5 = load ptr, ptr %4, align 8, !tbaa !23
  %6 = load ptr, ptr %3, align 8, !tbaa !21
  %7 = getelementptr inbounds nuw %struct.Gia_Man_t_, ptr %6, i32 0, i32 6
  %8 = load ptr, ptr %7, align 8, !tbaa !59
  %9 = ptrtoint ptr %5 to i64
  %10 = ptrtoint ptr %8 to i64
  %11 = sub i64 %9, %10
  %12 = sdiv exact i64 %11, 12
  %13 = trunc i64 %12 to i32
  ret i32 %13
}

; Function Attrs: inlinehint nounwind uwtable
define internal i32 @Jf_ObjIsUnit(ptr noundef %0) #1 {
  %2 = alloca ptr, align 8
  store ptr %0, ptr %2, align 8, !tbaa !23
  %3 = load ptr, ptr %2, align 8, !tbaa !23
  %4 = load i64, ptr %3, align 4
  %5 = lshr i64 %4, 30
  %6 = and i64 %5, 1
  %7 = trunc i64 %6 to i32
  %8 = icmp ne i32 %7, 0
  %9 = xor i1 %8, true
  %10 = zext i1 %9 to i32
  ret i32 %10
}

; Function Attrs: inlinehint nounwind uwtable
define internal i32 @Gia_ObjIsAnd(ptr noundef %0) #1 {
  %2 = alloca ptr, align 8
  store ptr %0, ptr %2, align 8, !tbaa !23
  %3 = load ptr, ptr %2, align 8, !tbaa !23
  %4 = load i64, ptr %3, align 4
  %5 = lshr i64 %4, 31
  %6 = and i64 %5, 1
  %7 = trunc i64 %6 to i32
  %8 = icmp ne i32 %7, 0
  br i1 %8, label %15, label %9

9:                                                ; preds = %1
  %10 = load ptr, ptr %2, align 8, !tbaa !23
  %11 = load i64, ptr %10, align 4
  %12 = and i64 %11, 536870911
  %13 = trunc i64 %12 to i32
  %14 = icmp ne i32 %13, 536870911
  br label %15

15:                                               ; preds = %9, %1
  %16 = phi i1 [ false, %1 ], [ %14, %9 ]
  %17 = zext i1 %16 to i32
  ret i32 %17
}

; Function Attrs: inlinehint nounwind uwtable
define internal void @Jf_ObjPropagateBuf(ptr noundef %0, ptr noundef %1, i32 noundef %2) #1 {
  %4 = alloca ptr, align 8
  %5 = alloca ptr, align 8
  %6 = alloca i32, align 4
  %7 = alloca i32, align 4
  %8 = alloca i32, align 4
  %9 = alloca i32, align 4
  store ptr %0, ptr %4, align 8, !tbaa !64
  store ptr %1, ptr %5, align 8, !tbaa !23
  store i32 %2, ptr %6, align 4, !tbaa !7
  call void @llvm.lifetime.start.p0(i64 4, ptr %7) #14
  %10 = load ptr, ptr %4, align 8, !tbaa !64
  %11 = getelementptr inbounds nuw %struct.Jf_Man_t_, ptr %10, i32 0, i32 0
  %12 = load ptr, ptr %11, align 8, !tbaa !66
  %13 = load ptr, ptr %5, align 8, !tbaa !23
  %14 = call i32 @Gia_ObjId(ptr noundef %12, ptr noundef %13)
  store i32 %14, ptr %7, align 4, !tbaa !7
  call void @llvm.lifetime.start.p0(i64 4, ptr %8) #14
  %15 = load ptr, ptr %5, align 8, !tbaa !23
  %16 = load i32, ptr %7, align 4, !tbaa !7
  %17 = call i32 @Gia_ObjFaninId0(ptr noundef %15, i32 noundef %16)
  store i32 %17, ptr %8, align 4, !tbaa !7
  %18 = load i32, ptr %6, align 4, !tbaa !7
  %19 = icmp ne i32 %18, 0
  br i1 %19, label %20, label %24

20:                                               ; preds = %3
  call void @llvm.lifetime.start.p0(i64 4, ptr %9) #14
  %21 = load i32, ptr %7, align 4, !tbaa !7
  store i32 %21, ptr %9, align 4, !tbaa !7
  %22 = load i32, ptr %8, align 4, !tbaa !7
  store i32 %22, ptr %7, align 4, !tbaa !7
  %23 = load i32, ptr %9, align 4, !tbaa !7
  store i32 %23, ptr %8, align 4, !tbaa !7
  call void @llvm.lifetime.end.p0(i64 4, ptr %9) #14
  br label %24

24:                                               ; preds = %20, %3
  %25 = load ptr, ptr %4, align 8, !tbaa !64
  %26 = getelementptr inbounds nuw %struct.Jf_Man_t_, ptr %25, i32 0, i32 6
  %27 = load i32, ptr %7, align 4, !tbaa !7
  %28 = load ptr, ptr %4, align 8, !tbaa !64
  %29 = load i32, ptr %8, align 4, !tbaa !7
  %30 = call i32 @Jf_ObjArr(ptr noundef %28, i32 noundef %29)
  call void @Vec_IntWriteEntry(ptr noundef %26, i32 noundef %27, i32 noundef %30)
  %31 = load ptr, ptr %4, align 8, !tbaa !64
  %32 = getelementptr inbounds nuw %struct.Jf_Man_t_, ptr %31, i32 0, i32 8
  %33 = load i32, ptr %7, align 4, !tbaa !7
  %34 = load ptr, ptr %4, align 8, !tbaa !64
  %35 = load i32, ptr %8, align 4, !tbaa !7
  %36 = call float @Jf_ObjFlow(ptr noundef %34, i32 noundef %35)
  call void @Vec_FltWriteEntry(ptr noundef %32, i32 noundef %33, float noundef %36)
  call void @llvm.lifetime.end.p0(i64 4, ptr %8) #14
  call void @llvm.lifetime.end.p0(i64 4, ptr %7) #14
  ret void
}

; Function Attrs: inlinehint nounwind uwtable
define internal i32 @Gia_ObjIsBuf(ptr noundef %0) #1 {
  %2 = alloca ptr, align 8
  store ptr %0, ptr %2, align 8, !tbaa !23
  %3 = load ptr, ptr %2, align 8, !tbaa !23
  %4 = load i64, ptr %3, align 4
  %5 = and i64 %4, 536870911
  %6 = trunc i64 %5 to i32
  %7 = load ptr, ptr %2, align 8, !tbaa !23
  %8 = load i64, ptr %7, align 4
  %9 = lshr i64 %8, 32
  %10 = and i64 %9, 536870911
  %11 = trunc i64 %10 to i32
  %12 = icmp eq i32 %6, %11
  br i1 %12, label %13, label %27

13:                                               ; preds = %1
  %14 = load ptr, ptr %2, align 8, !tbaa !23
  %15 = load i64, ptr %14, align 4
  %16 = and i64 %15, 536870911
  %17 = trunc i64 %16 to i32
  %18 = icmp ne i32 %17, 536870911
  br i1 %18, label %19, label %27

19:                                               ; preds = %13
  %20 = load ptr, ptr %2, align 8, !tbaa !23
  %21 = load i64, ptr %20, align 4
  %22 = lshr i64 %21, 31
  %23 = and i64 %22, 1
  %24 = trunc i64 %23 to i32
  %25 = icmp ne i32 %24, 0
  %26 = xor i1 %25, true
  br label %27

27:                                               ; preds = %19, %13, %1
  %28 = phi i1 [ false, %13 ], [ false, %1 ], [ %26, %19 ]
  %29 = zext i1 %28 to i32
  ret i32 %29
}

; Function Attrs: inlinehint nounwind uwtable
define internal ptr @Gia_ManObj(ptr noundef %0, i32 noundef %1) #1 {
  %3 = alloca ptr, align 8
  %4 = alloca i32, align 4
  store ptr %0, ptr %3, align 8, !tbaa !21
  store i32 %1, ptr %4, align 4, !tbaa !7
  %5 = load ptr, ptr %3, align 8, !tbaa !21
  %6 = getelementptr inbounds nuw %struct.Gia_Man_t_, ptr %5, i32 0, i32 6
  %7 = load ptr, ptr %6, align 8, !tbaa !59
  %8 = load i32, ptr %4, align 4, !tbaa !7
  %9 = sext i32 %8 to i64
  %10 = getelementptr inbounds %struct.Gia_Obj_t_, ptr %7, i64 %9
  ret ptr %10
}

; Function Attrs: nounwind uwtable
define void @Jf_ManPropagateFlow(ptr noundef %0, i32 noundef %1) #0 {
  %3 = alloca ptr, align 8
  %4 = alloca i32, align 4
  %5 = alloca ptr, align 8
  %6 = alloca i32, align 4
  store ptr %0, ptr %3, align 8, !tbaa !64
  store i32 %1, ptr %4, align 4, !tbaa !7
  call void @llvm.lifetime.start.p0(i64 8, ptr %5) #14
  call void @llvm.lifetime.start.p0(i64 4, ptr %6) #14
  store i32 0, ptr %6, align 4, !tbaa !7
  br label %7

7:                                                ; preds = %45, %2
  %8 = load i32, ptr %6, align 4, !tbaa !7
  %9 = load ptr, ptr %3, align 8, !tbaa !64
  %10 = getelementptr inbounds nuw %struct.Jf_Man_t_, ptr %9, i32 0, i32 0
  %11 = load ptr, ptr %10, align 8, !tbaa !66
  %12 = getelementptr inbounds nuw %struct.Gia_Man_t_, ptr %11, i32 0, i32 4
  %13 = load i32, ptr %12, align 8, !tbaa !28
  %14 = icmp slt i32 %8, %13
  br i1 %14, label %15, label %22

15:                                               ; preds = %7
  %16 = load ptr, ptr %3, align 8, !tbaa !64
  %17 = getelementptr inbounds nuw %struct.Jf_Man_t_, ptr %16, i32 0, i32 0
  %18 = load ptr, ptr %17, align 8, !tbaa !66
  %19 = load i32, ptr %6, align 4, !tbaa !7
  %20 = call ptr @Gia_ManObj(ptr noundef %18, i32 noundef %19)
  store ptr %20, ptr %5, align 8, !tbaa !23
  %21 = icmp ne ptr %20, null
  br label %22

22:                                               ; preds = %15, %7
  %23 = phi i1 [ false, %7 ], [ %21, %15 ]
  br i1 %23, label %24, label %48

24:                                               ; preds = %22
  %25 = load ptr, ptr %5, align 8, !tbaa !23
  %26 = call i32 @Gia_ObjIsBuf(ptr noundef %25)
  %27 = icmp ne i32 %26, 0
  br i1 %27, label %28, label %31

28:                                               ; preds = %24
  %29 = load ptr, ptr %3, align 8, !tbaa !64
  %30 = load ptr, ptr %5, align 8, !tbaa !23
  call void @Jf_ObjPropagateBuf(ptr noundef %29, ptr noundef %30, i32 noundef 0)
  br label %44

31:                                               ; preds = %24
  %32 = load ptr, ptr %5, align 8, !tbaa !23
  %33 = call i32 @Gia_ObjIsAnd(ptr noundef %32)
  %34 = icmp ne i32 %33, 0
  br i1 %34, label %35, label %43

35:                                               ; preds = %31
  %36 = load ptr, ptr %5, align 8, !tbaa !23
  %37 = call i32 @Jf_ObjIsUnit(ptr noundef %36)
  %38 = icmp ne i32 %37, 0
  br i1 %38, label %39, label %43

39:                                               ; preds = %35
  %40 = load ptr, ptr %3, align 8, !tbaa !64
  %41 = load ptr, ptr %5, align 8, !tbaa !23
  %42 = load i32, ptr %4, align 4, !tbaa !7
  call void @Jf_ObjComputeBestCut(ptr noundef %40, ptr noundef %41, i32 noundef %42, i32 noundef 0)
  br label %43

43:                                               ; preds = %39, %35, %31
  br label %44

44:                                               ; preds = %43, %28
  br label %45

45:                                               ; preds = %44
  %46 = load i32, ptr %6, align 4, !tbaa !7
  %47 = add nsw i32 %46, 1
  store i32 %47, ptr %6, align 4, !tbaa !7
  br label %7, !llvm.loop !210

48:                                               ; preds = %22
  %49 = load ptr, ptr %3, align 8, !tbaa !64
  %50 = call i32 @Jf_ManComputeRefs(ptr noundef %49)
  call void @llvm.lifetime.end.p0(i64 4, ptr %6) #14
  call void @llvm.lifetime.end.p0(i64 8, ptr %5) #14
  ret void
}