; Function Attrs: nounwind uwtable
define void @Jf_ManPropagateFlow(ptr noundef readonly captures(none) %0, i32 noundef %1) local_unnamed_addr #0 {
  %3 = load ptr, ptr %0, align 8, !tbaa !59
  %4 = getelementptr inbounds nuw i8, ptr %3, i64 24
  %5 = load i32, ptr %4, align 8, !tbaa !41
  %6 = icmp sgt i32 %5, 0
  br i1 %6, label %.lr.ph, label %.critedge

.lr.ph:                                           ; preds = %2
  %7 = getelementptr i8, ptr %0, i64 64
  %8 = getelementptr i8, ptr %0, i64 96
  br label %9

9:                                                ; preds = %.lr.ph, %37
  %10 = phi ptr [ %3, %.lr.ph ], [ %38, %37 ]
  %indvars.iv = phi i64 [ 0, %.lr.ph ], [ %indvars.iv.next, %37 ]
  %11 = getelementptr i8, ptr %10, i64 32
  %.val = load ptr, ptr %11, align 8, !tbaa !38
  %12 = getelementptr inbounds nuw %struct.Gia_Obj_t_, ptr %.val, i64 %indvars.iv
  %.not = icmp eq ptr %.val, null
  br i1 %.not, label %.critedge, label %13

13:                                               ; preds = %9
  %.val18 = load i64, ptr %12, align 4
  %14 = trunc i64 %.val18 to i32
  %15 = and i32 %14, 536870911
  %16 = lshr i64 %.val18, 32
  %17 = trunc nuw i64 %16 to i32
  %18 = and i32 %17, 536870911
  %19 = icmp eq i32 %15, %18
  %.not.i = icmp ne i32 %15, 536870911
  %or.cond.not.i = and i1 %.not.i, %19
  %20 = and i64 %.val18, 2147483648
  %.not4.i = icmp eq i64 %20, 0
  %narrow.i = and i1 %.not4.i, %or.cond.not.i
  br i1 %narrow.i, label %21, label %31

21:                                               ; preds = %13
  %22 = trunc nuw nsw i64 %indvars.iv to i32
  %23 = sub nsw i32 %22, %15
  %.val19.i = load ptr, ptr %7, align 8, !tbaa !13
  %24 = sext i32 %23 to i64
  %25 = getelementptr inbounds i32, ptr %.val19.i, i64 %24
  %26 = load i32, ptr %25, align 4, !tbaa !14
  %27 = getelementptr inbounds nuw i32, ptr %.val19.i, i64 %indvars.iv
  store i32 %26, ptr %27, align 4, !tbaa !14
  %.val20.i = load ptr, ptr %8, align 8, !tbaa !105
  %28 = getelementptr inbounds float, ptr %.val20.i, i64 %24
  %29 = load float, ptr %28, align 4, !tbaa !77
  %30 = getelementptr inbounds nuw float, ptr %.val20.i, i64 %indvars.iv
  store float %29, ptr %30, align 4, !tbaa !77
  br label %37

31:                                               ; preds = %13
  %32 = and i64 %.val18, 536870911
  %33 = icmp ne i64 %32, 536870911
  %34 = and i64 %.val18, 3221225472
  %35 = icmp eq i64 %34, 0
  %or.cond = and i1 %35, %33
  br i1 %or.cond, label %36, label %37

36:                                               ; preds = %31
  tail call void @Jf_ObjComputeBestCut(ptr noundef nonnull %0, ptr noundef nonnull %12, i32 noundef %1, i32 noundef 0)
  %.pre = load ptr, ptr %0, align 8, !tbaa !59
  br label %37

37:                                               ; preds = %21, %36, %31
  %38 = phi ptr [ %10, %21 ], [ %.pre, %36 ], [ %10, %31 ]
  %indvars.iv.next = add nuw nsw i64 %indvars.iv, 1
  %39 = getelementptr inbounds nuw i8, ptr %38, i64 24
  %40 = load i32, ptr %39, align 8, !tbaa !41
  %41 = sext i32 %40 to i64
  %42 = icmp slt i64 %indvars.iv.next, %41
  br i1 %42, label %9, label %.critedge, !llvm.loop !205

.critedge:                                        ; preds = %9, %37, %2
  %43 = tail call i32 @Jf_ManComputeRefs(ptr noundef nonnull %0)
  ret void
}